target datalayout = "e-m:e-p270:32:32-p271:32:32-p272:64:64-i64:64-i128:128-f80:128-n8:16:32:64-S128"
target triple = "x86_64-unknown-linux-gnu"

%struct.asn1_string_st = type { i32, i32, ptr, i64 }

; Function Attrs: nounwind uwtable
define hidden void @ASN1_STRING_free(ptr noundef %a) #0 {
entry:
  %a.addr = alloca ptr, align 8
  store ptr %a, ptr %a.addr, align 8
  %0 = load ptr, ptr %a.addr, align 8
  %cmp = icmp eq ptr %0, null
  br i1 %cmp, label %if.then, label %if.end

if.then:                                          ; preds = %entry
  br label %return

if.end:                                           ; preds = %entry
  %1 = load ptr, ptr %a.addr, align 8
  %data = getelementptr inbounds %struct.asn1_string_st, ptr %1, i32 0, i32 2
  %2 = load ptr, ptr %data, align 8
  %tobool = icmp ne ptr %2, null
  br i1 %tobool, label %land.lhs.true, label %if.end4

land.lhs.true:                                    ; preds = %if.end
  %3 = load ptr, ptr %a.addr, align 8
  %flags = getelementptr inbounds %struct.asn1_string_st, ptr %3, i32 0, i32 3
  %4 = load i64, ptr %flags, align 8
  %and = and i64 %4, 16
  %tobool1 = icmp ne i64 %and, 0
  br i1 %tobool1, label %if.end4, label %if.then2

if.then2:                                         ; preds = %land.lhs.true
  %5 = load ptr, ptr %a.addr, align 8
  %data3 = getelementptr inbounds %struct.asn1_string_st, ptr %5, i32 0, i32 2
  %6 = load ptr, ptr %data3, align 8
  call void @free(ptr noundef %6) #10
  br label %if.end4

if.end4:                                          ; preds = %if.then2, %land.lhs.true, %if.end
  %7 = load ptr, ptr %a.addr, align 8
  call void @free(ptr noundef %7) #10
  br label %return

return:                                           ; preds = %if.end4, %if.then
  ret void
}