; Function Attrs: mustprogress nounwind willreturn uwtable
define hidden void @ASN1_STRING_free(ptr noundef %a) local_unnamed_addr #6 {
entry:
  %cmp = icmp eq ptr %a, null
  br i1 %cmp, label %return, label %if.end

if.end:                                           ; preds = %entry
  %data = getelementptr inbounds nuw i8, ptr %a, i64 8
  %0 = load ptr, ptr %data, align 8
  %tobool.not = icmp eq ptr %0, null
  br i1 %tobool.not, label %if.end4, label %land.lhs.true

land.lhs.true:                                    ; preds = %if.end
  %flags = getelementptr inbounds nuw i8, ptr %a, i64 16
  %1 = load i64, ptr %flags, align 8
  %and = and i64 %1, 16
  %tobool1.not = icmp eq i64 %and, 0
  br i1 %tobool1.not, label %if.then2, label %if.end4

if.then2:                                         ; preds = %land.lhs.true
  tail call void @free(ptr noundef nonnull %0) #16
  br label %if.end4

if.end4:                                          ; preds = %if.then2, %land.lhs.true, %if.end
  tail call void @free(ptr noundef nonnull %a) #16
  br label %return

return:                                           ; preds = %entry, %if.end4
  ret void
}